; Function Attrs: nofree norecurse nosync nounwind memory(none) uwtable
define hidden i32 @ChunkGetIndexFromTag(i32 noundef %0) local_unnamed_addr #5 {
  br label %2

2:                                                ; preds = %1, %5
  %indvars.iv = phi i64 [ 0, %1 ], [ %indvars.iv.next, %5 ]
  %3 = phi i32 [ 1480085590, %1 ], [ %7, %5 ]
  %4 = icmp eq i32 %0, %3
  br i1 %4, label %.split.loop.exit10, label %5

5:                                                ; preds = %2
  %indvars.iv.next = add nuw nsw i64 %indvars.iv, 1
  %6 = getelementptr inbounds nuw [11 x %struct.ChunkInfo], ptr @kChunks, i64 0, i64 %indvars.iv.next
  %7 = load i32, ptr %6, align 4, !tbaa !15
  %exitcond = icmp eq i64 %indvars.iv.next, 9
  br i1 %exitcond, label %.split.loop.exit, label %2, !llvm.loop !17

.split.loop.exit10:                               ; preds = %2
  %8 = trunc nuw nsw i64 %indvars.iv to i32
  br label %.split.loop.exit

.split.loop.exit:                                 ; preds = %5, %.split.loop.exit10
  %.06 = phi i32 [ %8, %.split.loop.exit10 ], [ 9, %5 ]
  ret i32 %.06
}